; Function Attrs: mustprogress uwtable
define void @_ZNK5arrow9FieldPath12GetFlattenedERKNS_5TableEPNS_10MemoryPoolE(ptr dead_on_unwind noalias writable sret(%"class.arrow::Result.188") align 8 %0, ptr noundef nonnull align 8 dereferenceable(24) %1, ptr noundef nonnull align 8 dereferenceable(32) %2, ptr noundef %3) local_unnamed_addr #1 align 2 personality ptr @__gxx_personality_v0 {
  %5 = alloca %"class.arrow::NestedSelector.268", align 8
  %6 = load ptr, ptr %2, align 8, !tbaa !330
  %7 = getelementptr inbounds nuw i8, ptr %6, i64 24
  %8 = load ptr, ptr %7, align 8
  %9 = tail call noundef nonnull align 8 dereferenceable(24) ptr %8(ptr noundef nonnull align 8 dereferenceable(32) %2)
  call void @llvm.memset.p0.i64(ptr noundef nonnull align 8 dereferenceable(40) %5, i8 0, i64 16, i1 false)
  %10 = getelementptr inbounds nuw i8, ptr %5, i64 16
  store ptr %9, ptr %10, align 8, !tbaa !1320
  %11 = getelementptr inbounds nuw i8, ptr %5, i64 24
  store i8 1, ptr %11, align 8, !tbaa !1323
  %12 = invoke noundef ptr @_ZN5arrow19default_memory_poolEv()
          to label %_ZN5arrow14NestedSelectorINS_12ChunkedArrayELb1EEC2IRKSt6vectorISt10shared_ptrIS1_ESaIS6_EEEEOT_PNS_10MemoryPoolE.exit unwind label %13

common.resume:                                    ; preds = %40, %13
  %common.resume.op = phi { ptr, i32 } [ %14, %13 ], [ %41, %40 ]
  resume { ptr, i32 } %common.resume.op

13:                                               ; preds = %4
  %14 = landingpad { ptr, i32 }
          cleanup
  call void @_ZNSt12__shared_ptrIN5arrow12ChunkedArrayELN9__gnu_cxx12_Lock_policyE2EED2Ev(ptr noundef nonnull align 8 dereferenceable(40) %5) #38
  br label %common.resume

_ZN5arrow14NestedSelectorINS_12ChunkedArrayELb1EEC2IRKSt6vectorISt10shared_ptrIS1_ESaIS6_EEEEOT_PNS_10MemoryPoolE.exit: ; preds = %4
  %15 = getelementptr inbounds nuw i8, ptr %5, i64 32
  %.not.i = icmp eq ptr %3, null
  %spec.store.select.i = select i1 %.not.i, ptr %12, ptr %3
  store ptr %spec.store.select.i, ptr %15, align 8
  invoke void @_ZN5arrow16FieldPathGetImpl3GetINS_14NestedSelectorINS_12ChunkedArrayELb1EEES3_EENS_6ResultISt10shared_ptrIT0_EEEPKNS_9FieldPathET_Pi(ptr dead_on_unwind writable sret(%"class.arrow::Result.188") align 8 %0, ptr noundef nonnull %1, ptr noundef nonnull %5, ptr noundef null)
          to label %16 unwind label %40

16:                                               ; preds = %_ZN5arrow14NestedSelectorINS_12ChunkedArrayELb1EEC2IRKSt6vectorISt10shared_ptrIS1_ESaIS6_EEEEOT_PNS_10MemoryPoolE.exit
  %17 = getelementptr inbounds nuw i8, ptr %5, i64 8
  %18 = load ptr, ptr %17, align 8, !tbaa !352
  %.not.i.i.i = icmp eq ptr %18, null
  br i1 %.not.i.i.i, label %_ZN5arrow14NestedSelectorINS_12ChunkedArrayELb1EED2Ev.exit, label %19

19:                                               ; preds = %16
  %20 = getelementptr inbounds nuw i8, ptr %18, i64 8
  %21 = load atomic i64, ptr %20 acquire, align 8
  %22 = icmp eq i64 %21, 4294967297
  %23 = trunc i64 %21 to i32
  br i1 %22, label %24, label %32

24:                                               ; preds = %19
  store i32 0, ptr %20, align 8, !tbaa !482
  %25 = getelementptr inbounds nuw i8, ptr %18, i64 12
  store i32 0, ptr %25, align 4, !tbaa !493
  %26 = load ptr, ptr %18, align 8, !tbaa !330
  %27 = getelementptr inbounds nuw i8, ptr %26, i64 16
  %28 = load ptr, ptr %27, align 8
  call void %28(ptr noundef nonnull align 8 dereferenceable(16) %18) #38
  %29 = load ptr, ptr %18, align 8, !tbaa !330
  %30 = getelementptr inbounds nuw i8, ptr %29, i64 24
  %31 = load ptr, ptr %30, align 8
  call void %31(ptr noundef nonnull align 8 dereferenceable(16) %18) #38
  br label %_ZN5arrow14NestedSelectorINS_12ChunkedArrayELb1EED2Ev.exit

32:                                               ; preds = %19
  %33 = load i8, ptr @__libc_single_threaded, align 1, !tbaa !42
  %.not.i.i.i.i = icmp eq i8 %33, 0
  br i1 %.not.i.i.i.i, label %36, label %34

34:                                               ; preds = %32
  %35 = add nsw i32 %23, -1
  store i32 %35, ptr %20, align 4, !tbaa !358
  br label %_ZN9__gnu_cxx27__exchange_and_add_dispatchEPii.exit.i.i.i.i

36:                                               ; preds = %32
  %37 = atomicrmw volatile add ptr %20, i32 -1 acq_rel, align 4
  br label %_ZN9__gnu_cxx27__exchange_and_add_dispatchEPii.exit.i.i.i.i

_ZN9__gnu_cxx27__exchange_and_add_dispatchEPii.exit.i.i.i.i: ; preds = %36, %34
  %.0.i.i.i.i.i = phi i32 [ %23, %34 ], [ %37, %36 ]
  %38 = icmp eq i32 %.0.i.i.i.i.i, 1
  br i1 %38, label %39, label %_ZN5arrow14NestedSelectorINS_12ChunkedArrayELb1EED2Ev.exit, !prof !559

39:                                               ; preds = %_ZN9__gnu_cxx27__exchange_and_add_dispatchEPii.exit.i.i.i.i
  call void @_ZNSt16_Sp_counted_baseILN9__gnu_cxx12_Lock_policyE2EE24_M_release_last_use_coldEv(ptr noundef nonnull align 8 dereferenceable(16) %18) #38
  br label %_ZN5arrow14NestedSelectorINS_12ChunkedArrayELb1EED2Ev.exit

_ZN5arrow14NestedSelectorINS_12ChunkedArrayELb1EED2Ev.exit: ; preds = %16, %24, %_ZN9__gnu_cxx27__exchange_and_add_dispatchEPii.exit.i.i.i.i, %39
  ret void

40:                                               ; preds = %_ZN5arrow14NestedSelectorINS_12ChunkedArrayELb1EEC2IRKSt6vectorISt10shared_ptrIS1_ESaIS6_EEEEOT_PNS_10MemoryPoolE.exit
  %41 = landingpad { ptr, i32 }
          cleanup
  call void @_ZN5arrow14NestedSelectorINS_12ChunkedArrayELb1EED2Ev(ptr noundef nonnull align 8 dereferenceable(40) %5) #38
  br label %common.resume
}